(dp1
S'construction equipment'
p2
I51
sS'garden roses'
p3
I1620
sS'traditional sport'
p4
I505
sS'child'
p5
I371
sS'yellow'
p6
I260
sS'stick and ball sports'
p7
I954
sS'sleep'
p8
I1651
sS'ball over a net games'
p9
I1698
sS'mansion'
p10
I206
sS'sports car'
p11
I566
sS'astronomical object'
p12
I1530
sS'mason jar'
p13
I717
sS'swan'
p14
I917
sS'endurance riding'
p15
I953
sS'galeas'
p16
I1728
sS'trousers'
p17
I1581
sS'letter box'
p18
I1339
sS'marimba'
p19
I1083
sS'aurora'
p20
I862
sS'vase'
p21
I1289
sS'vought f4u corsair'
p22
I757
sS'chocolate cake'
p23
I1495
sS'fireplace'
p24
I154
sS'chapel'
p25
I405
sS'school'
p26
I1336
sS'parrot'
p27
I361
sS'violet family'
p28
I1636
sS'protest'
p29
I1299
sS'luxury yacht'
p30
I1572
sS'poppy'
p31
I1501
sS'auto racing'
p32
I105
sS'bicycle'
p33
I238
sS'dog breed'
p34
I926
sS'nail'
p35
I1739
sS'street'
p36
I413
sS'floribunda'
p37
I1621
sS'cactus'
p38
I1782
sS'blue'
p39
I219
sS'cooking'
p40
I1335
sS'orchestra'
p41
I608
sS'haze'
p42
I387
sS'corn on the cob'
p43
I1504
sS'fjord'
p44
I425
sS'net'
p45
I1725
sS'public library'
p46
I1815
sS'roller skating'
p47
I675
sS'hydrangea'
p48
I1632
sS'all terrain vehicle'
p49
I1171
sS'bookcase'
p50
I1088
sS'parking lot'
p51
I1369
sS'sea cave'
p52
I1001
sS'chocolate brownie'
p53
I1776
sS'medieval architecture'
p54
I385
sS'cake decorating'
p55
I1551
sS'mantis'
p56
I1784
sS'jogging'
p57
I1391
sS'double bass'
p58
I1278
sS'coral reef fish'
p59
I302
sS'military'
p60
I1418
sS'aikido'
p61
I1324
sS'rafting'
p62
I897
sS'bicycle frame'
p63
I650
sS'rear view mirror'
p64
I858
sS'flower arranging'
p65
I706
sS'pyramid'
p66
I448
sS'cayenne pepper'
p67
I1799
sS'landscape'
p68
I1000
sS'aircraft engine'
p69
I1293
sS'mountain range'
p70
I749
sS'spoke'
p71
I37
sS'alligator'
p72
I934
sS'hospital'
p73
I1073
sS'escarpment'
p74
I1478
sS'bayou'
p75
I403
sS'music'
p76
I490
sS'rock climbing'
p77
I232
sS'air travel'
p78
I474
sS'limousine'
p79
I565
sS'motor ship'
p80
I521
sS'full rigged ship'
p81
I1672
sS'air sports'
p82
I738
sS'baluster'
p83
I1092
sS'glass'
p84
I401
sS'casting fishing'
p85
I1692
sS'thatching'
p86
I1252
sS'marsupial'
p87
I1333
sS'gautama buddha'
p88
I1255
sS'flora'
p89
I808
sS'bartender'
p90
I1149
sS'room'
p91
I31
sS'player'
p92
I156
sS'boeing 737'
p93
I745
sS'roof'
p94
I447
sS'locker'
p95
I1041
sS'erg'
p96
I1595
sS'jaguar xk120'
p97
I1352
sS'newfoundland'
p98
I1755
sS'rhodesian ridgeback'
p99
I1087
sS'ferrari california'
p100
I1383
sS'estate'
p101
I205
sS'monochrome photography'
p102
I35
sS'dolphin'
p103
I313
sS'100 metres hurdles'
p104
I1409
sS'currency'
p105
I432
sS'dog breed group'
p106
I900
sS'hybrid bicycle'
p107
I241
sS'ostrich'
p108
I1118
sS'ceremony'
p109
I290
sS'professional boxing'
p110
I1313
sS'shelving'
p111
I630
sS'pergola'
p112
I523
sS'chameleon'
p113
I362
sS'machine'
p114
I228
sS'end table'
p115
I1593
sS'drummer'
p116
I684
sS'gate'
p117
I404
sS'beach'
p118
I888
sS'cornrows'
p119
I1743
sS'jeep cherokee xj'
p120
I1608
sS'wedding cake'
p121
I605
sS'poker'
p122
I1524
sS'noodle soup'
p123
I710
sS'beauty'
p124
I1508
sS'cadillac'
p125
I1378
sS'personal luxury car'
p126
I753
sS'pocket billiards'
p127
I1811
sS'jumping'
p128
I538
sS'arch bridge'
p129
I428
sS'bullet train'
p130
I975
sS'arch'
p131
I204
sS'long hair'
p132
I624
sS'bat and ball games'
p133
I1235
sS'aircraft cabin'
p134
I1470
sS'tulip'
p135
I1446
sS'keirin'
p136
I1406
sS'green'
p137
I369
sS'jungle'
p138
I818
sS'ambulance'
p139
I6
sS'wine'
p140
I716
sS'classical sculpture'
p141
I1274
sS'office'
p142
I1084
sS'deck'
p143
I1096
sS'volkswagen type 2'
p144
I1541
sS'arena football'
p145
I1233
sS'jacuzzi'
p146
I1112
sS'keyboard'
p147
I558
sS'aerial photography'
p148
I983
sS'windshield'
p149
I592
sS'water park'
p150
I500
sS'destroyer'
p151
I1008
sS'plantation'
p152
I1505
sS'mercedes benz r129'
p153
I1380
sS'bouldering'
p154
I1477
sS'vehicle'
p155
I1
sS'coffee'
p156
I1487
sS'beach volleyball'
p157
I1521
sS'wind wave'
p158
I1258
sS'mercedes benz'
p159
I1354
sS'giraffe'
p160
I1280
sS'ballroom dance'
p161
I1753
sS'blouse'
p162
I1576
sS'tourism'
p163
I233
sS'marching band'
p164
I1217
sS'rallycross'
p165
I971
sS'bread'
p166
I1775
sS'meat'
p167
I249
sS'choir'
p168
I22
sS'beam bridge'
p169
I458
sS'borassus flabellifer'
p170
I844
sS'volcano'
p171
I1429
sS'meal'
p172
I250
sS'gargoyle'
p173
I165
sS'spider'
p174
I825
sS'sled'
p175
I1168
sS'waffle'
p176
I542
sS'cathedral'
p177
I388
sS'flock'
p178
I1509
sS'driving'
p179
I773
sS'elephants and mammoths'
p180
I837
sS'signaling device'
p181
I1342
sS'forklift truck'
p182
I572
sS'foundation'
p183
I1413
sS'water bird'
p184
I877
sS'muay thai'
p185
I1316
sS'hoodie'
p186
I1589
sS'lollipop'
p187
I1556
sS'chainsaw carving'
p188
I801
sS'aisle'
p189
I723
sS'racquetball'
p190
I493
sS'deadlift'
p191
I1060
sS'fly fishing'
p192
I930
sS'mouth'
p193
I1720
sS'brickwork'
p194
I454
sS'massif'
p195
I938
sS'chopper'
p196
I1248
sS'propeller driven aircraft'
p197
I761
sS'rhododendron'
p198
I1783
sS'basketball'
p199
I518
sS'electrical wiring'
p200
I571
sS'lego'
p201
I543
sS'ferrari 348'
p202
I1376
sS'tango'
p203
I1810
sS'mid size car'
p204
I109
sS'boating'
p205
I108
sS'ceiling'
p206
I253
sS'gym'
p207
I263
sS'killer whale'
p208
I343
sS'lavender'
p209
I399
sS'weightlifting'
p210
I1071
sS'wardrobe'
p211
I1040
sS'praline'
p212
I1773
sS'minibus'
p213
I29
sS'camel like mammal'
p214
I533
sS'tree'
p215
I119
sS'gift basket'
p216
I284
sS'flame'
p217
I148
sS'iron'
p218
I656
sS'gingerbread house'
p219
I1545
sS'soft drink'
p220
I1494
sS'mini'
p221
I80
sS'fashion'
p222
I1210
sS'palace'
p223
I1420
sS'cartilaginous fish'
p224
I311
sS'lockheed c 130 hercules'
p225
I747
sS'seminar'
p226
I687
sS'escalator'
p227
I464
sS'steamboat'
p228
I903
sS'snow'
p229
I188
sS'shooting sport'
p230
I418
sS'hair coloring'
p231
I622
sS'chess'
p232
I1272
sS'electronic device'
p233
I547
sS'lamnidae'
p234
I328
sS'tourist attraction'
p235
I643
sS'italian sausage'
p236
I1714
sS'polar bear'
p237
I890
sS'tour bus service'
p238
I1660
sS'drought'
p239
I1430
sS'grave'
p240
I1249
sS'manta ray'
p241
I348
sS'formal wear'
p242
I1583
sS'water sport'
p243
I372
sS'dog'
p244
I181
sS'swamp'
p245
I1121
sS'bodybuilder'
p246
I1042
sS'hydrangeaceae'
p247
I1633
sS'amphitheatre'
p248
I439
sS'heavy cruiser'
p249
I1006
sS'flagstone'
p250
I1612
sS'macaque'
p251
I1638
sS'chandelier'
p252
I1101
sS'gauge'
p253
I1475
sS'lamborghini gallardo'
p254
I1370
sS'recliner'
p255
I1022
sS'geyser'
p256
I117
sS'exercise machine'
p257
I1044
sS'surfing equipment and supplies'
p258
I1103
sS'automotive mirror'
p259
I857
sS'fire department'
p260
I11
sS'harness racing'
p261
I961
sS'place of worship'
p262
I215
sS'muscle car'
p263
I1613
sS'cappuccino'
p264
I1490
sS'sunglasses'
p265
I654
sS'day dress'
p266
I1575
sS'honda'
p267
I1346
sS'board game'
p268
I1273
sS'leisure'
p269
I142
sS'coast'
p270
I526
sS'wedding'
p271
I408
sS'jaguar'
p272
I375
sS'rowing'
p273
I107
sS'disco'
p274
I463
sS'emu'
p275
I847
sS'bag'
p276
I610
sS'architecture'
p277
I67
sS'sweet grass'
p278
I1695
sS'steak'
p279
I1704
sS'ruins'
p280
I398
sS'disaster'
p281
I882
sS'fair'
p282
I641
sS'racing bicycle'
p283
I240
sS'motherboard'
p284
I546
sS't shirt'
p285
I434
sS'honda s2000'
p286
I1389
sS'scrap'
p287
I574
sS'sail'
p288
I916
sS'swimwear'
p289
I193
sS'chinese architecture'
p290
I1256
sS'mud'
p291
I965
sS'mug'
p292
I625
sS'finger'
p293
I1031
sS'conference hall'
p294
I669
sS'north american p 51 mustang'
p295
I746
sS'giraffidae'
p296
I1281
sS'team'
p297
I591
sS'sailing ship'
p298
I491
sS'great white shark'
p299
I326
sS'mazda'
p300
I1368
sS'aquarium'
p301
I296
sS'metro station'
p302
I460
sS'body of water'
p303
I127
sS'kitchen'
p304
I1075
sS'sunflower'
p305
I1428
sS'stealth aircraft'
p306
I782
sS'ice hockey position'
p307
I1218
sS'games'
p308
I189
sS'mixing console'
p309
I569
sS'roller coaster'
p310
I637
sS'musical ensemble'
p311
I525
sS'canyon'
p312
I424
sS'garage door'
p313
I102
sS'ancient rome'
p314
I511
sS'grazing'
p315
I1266
sS'lighthouse'
p316
I1002
sS'sea anemone'
p317
I314
sS'sunlounger'
p318
I1184
sS'submarine'
p319
I1450
sS'beer'
p320
I703
sS'trigger'
p321
I573
sS'atmospheric phenomenon'
p322
I214
sS'stadium'
p323
I364
sS'purple passionflower'
p324
I1798
sS'wheelchair sports'
p325
I1411
sS'passenger car'
p326
I973
sS'electronic instrument'
p327
I586
sS'car seat'
p328
I1733
sS'coffee table'
p329
I1016
sS'crocodilia'
p330
I935
sS'aviation'
p331
I581
sS'charadriiformes'
p332
I1454
sS'boxing ring'
p333
I1045
sS'tank'
p334
I178
sS'lizard'
p335
I1599
sS'watercourse'
p336
I129
sS'property'
p337
I0
sS'savanna'
p338
I620
sS'orchestra pit'
p339
I700
sS'canoeing'
p340
I894
sS'handrail'
p341
I668
sS'challah'
p342
I1763
sS'alpine skiing'
p343
I1162
sS'ball pit'
p344
I1396
sS'rail transport'
p345
I433
sS'nature reserve'
p346
I802
sS'monochrome'
p347
I155
sS'memorial'
p348
I1527
sS'undergarment'
p349
I1110
sS'inventory'
p350
I1138
sS'vegetable'
p351
I719
sS'barbecue grill'
p352
I1300
sS'wheel'
p353
I38
sS'bird feeder'
p354
I1115
sS'exercise equipment'
p355
I1813
sS'wide body aircraft'
p356
I475
sS'rain'
p357
I216
sS'temperate coniferous forest'
p358
I842
sS'suburb'
p359
I1193
sS'waterfall'
p360
I213
sS'communication device'
p361
I1345
sS'hearth'
p362
I698
sS'cormorant'
p363
I382
sS'boeing 717'
p364
I765
sS'baby products'
p365
I1050
sS'emergency vehicle'
p366
I5
sS'ocean'
p367
I1011
sS'piciformes'
p368
I868
sS'passion flower'
p369
I1796
sS'snowman'
p370
I1627
sS'sea otter'
p371
I308
sS'brown bear'
p372
I871
sS'laptop'
p373
I692
sS'elk'
p374
I878
sS'flooring'
p375
I183
sS'cue sports'
p376
I342
sS'hay'
p377
I1502
sS'bodypump'
p378
I681
sS'bicycle motocross'
p379
I1284
sS'hat'
p380
I1618
sS'bandy'
p381
I1167
sS'television set'
p382
I384
sS'whales dolphins and porpoises'
p383
I301
sS'hill station'
p384
I516
sS'hatchback'
p385
I1534
sS'body man'
p386
I1058
sS'kitesurfing'
p387
I904
sS'police car'
p388
I98
sS'night'
p389
I217
sS'hornbill'
p390
I867
sS'crowd'
p391
I421
sS'people'
p392
I192
sS'military transport aircraft'
p393
I755
sS'dining room'
p394
I257
sS'riding mower'
p395
I1467
sS'billboard'
p396
I1667
sS'orchid'
p397
I861
sS'crow like bird'
p398
I1479
sS'purple'
p399
I677
sS'fox'
p400
I1526
sS'ice'
p401
I1172
sS'endurance sports'
p402
I647
sS'baseball park'
p403
I506
sS'fog'
p404
I422
sS'opel gt'
p405
I1379
sS'ice hotel'
p406
I1544
sS'stingray'
p407
I349
sS'khaki'
p408
I1588
sS'energy'
p409
I779
sS'trampoline'
p410
I230
sS'outdoor power equipment'
p411
I1468
sS'manufacturing'
p412
I492
sS'headstone'
p413
I1525
sS'scaffolding'
p414
I485
sS'trophy'
p415
I1003
sS'rallying'
p416
I1439
sS'coral'
p417
I303
sS'mcdonnell douglas av 8b harrier ii'
p418
I772
sS'dinner'
p419
I291
sS'anime'
p420
I614
sS'horizon'
p421
I646
sS'convenience food'
p422
I264
sS'seabird'
p423
I1453
sS'curry'
p424
I259
sS'man made object'
p425
I126
sS'speed skating'
p426
I1463
sS'common snapping turtle'
p427
I1635
sS'profession'
p428
I1735
sS'fern'
p429
I805
sS'narrow body aircraft'
p430
I741
sS'carving'
p431
I1271
sS'fashion accessory'
p432
I481
sS'shopping mall'
p433
I186
sS'flatland bmx'
p434
I1685
sS'tennis'
p435
I1518
sS'double decker bus'
p436
I1344
sS'interior design'
p437
I1108
sS'sunlight'
p438
I819
sS'street food'
p439
I1144
sS'potato and tomato genus'
p440
I1306
sS'horse harness'
p441
I576
sS'wat'
p442
I1254
sS'head'
p443
I1036
sS'eventing'
p444
I211
sS'fireworks'
p445
I190
sS'ratite'
p446
I849
sS'ford'
p447
I1357
sS'indoor cycling'
p448
I1034
sS'otter'
p449
I307
sS'beluga whale'
p450
I304
sS'supercar'
p451
I568
sS'winery'
p452
I699
sS'alpine a110'
p453
I1610
sS'fireboat'
p454
I1675
sS'basilica'
p455
I392
sS'open wheel car'
p456
I584
sS'press up'
p457
I1056
sS'australian rules football'
p458
I1232
sS'ship'
p459
I76
sS'baguette'
p460
I726
sS'floor'
p461
I184
sS'long tail boat'
p462
I1267
sS'card game'
p463
I1334
sS'human hair color'
p464
I1721
sS'laundry room'
p465
I1069
sS'saucer'
p466
I627
sS'bronze sculpture'
p467
I1291
sS'rapeseed'
p468
I1263
sS'winter storm'
p469
I984
sS'breakfast sausage'
p470
I1713
sS'tugboat'
p471
I1566
sS'carrack'
p472
I913
sS'yacht'
p473
I224
sS'jacket'
p474
I480
sS'passenger ship'
p475
I77
sS'wind turbine'
p476
I778
sS'gown'
p477
I514
sS'twenty20'
p478
I1726
sS'dance'
p479
I150
sS'viaduct'
p480
I430
sS'crocodile'
p481
I1122
sS'bombardier challenger 600'
p482
I774
sS'chair'
p483
I467
sS'bomber'
p484
I740
sS'aquarium lighting'
p485
I318
sS'grape'
p486
I1275
sS'fluyt'
p487
I911
sS'vizsla'
p488
I1485
sS'palm family'
p489
I843
sS'brown'
p490
I1559
sS'icing'
p491
I1767
sS'kendo'
p492
I1320
sS'cook'
p493
I1486
sS'light aircraft'
p494
I735
sS'nectar'
p495
I1787
sS'heliconia'
p496
I839
sS'gun'
p497
I1285
sS'contact sport'
p498
I690
sS'crustacean'
p499
I355
sS'subway'
p500
I482
sS'real estate'
p501
I13
sS'greco roman wrestling'
p502
I689
sS'art exhibition'
p503
I598
sS'bonfire'
p504
I71
sS'bulldozer'
p505
I575
sS'rolling stock'
p506
I82
sS'villa'
p507
I412
sS'outdoor play equipment'
p508
I237
sS'prairie'
p509
I423
sS'naval ship'
p510
I1005
sS'race car'
p511
I92
sS'floating production storage and offloading'
p512
I1731
sS'patient'
p513
I1654
sS'port'
p514
I1670
sS'parachuting'
p515
I663
sS'barbie'
p516
I1554
sS'cleanliness'
p517
I1652
sS'spire'
p518
I1154
sS'airport terminal'
p519
I79
sS'sundae'
p520
I1771
sS'gazebo'
p521
I198
sS'explosion'
p522
I1640
sS'clock tower'
p523
I59
sS'stallion'
p524
I944
sS'mustang horse'
p525
I963
sS'water'
p526
I336
sS'french lavender'
p527
I1623
sS'baseball'
p528
I1237
sS'goldfish'
p529
I309
sS'motorcycle racing'
p530
I1600
sS'massage'
p531
I1740
sS'machine tool'
p532
I552
sS'kebab'
p533
I730
sS'tuxedo'
p534
I1584
sS'kayak'
p535
I429
sS'football player'
p536
I509
sS'snowboard'
p537
I1161
sS'firearm'
p538
I1286
sS'market'
p539
I245
sS'ocean liner'
p540
I1567
sS'military officer'
p541
I1532
sS'wicker'
p542
I1594
sS'sports'
p543
I53
sS'vineyard'
p544
I1259
sS'outdoor structure'
p545
I1246
sS'recreational vehicle'
p546
I44
sS'comic book'
p547
I619
sS'geographical feature'
p548
I110
sS'countertop'
p549
I236
sS'obelisk'
p550
I203
sS'tundra'
p551
I1134
sS'chocolate'
p552
I1761
sS'toilet seat'
p553
I1701
sS'canopy walkway'
p554
I1805
sS'mascot'
p555
I653
sS'judo'
p556
I1203
sS'seafood boil'
p557
I1711
sS'car'
p558
I7
sS'cap'
p559
I1568
sS'gothic architecture'
p560
I411
sS'cat'
p561
I1021
sS'soup'
p562
I711
sS'modern art'
p563
I346
sS'ferry'
p564
I75
sS'fauna'
p565
I312
sS'pumpkin'
p566
I1309
sS'overpass'
p567
I476
sS'stream'
p568
I786
sS'red sky at morning'
p569
I884
sS'powerboating'
p570
I922
sS'parachute'
p571
I661
sS'drawer'
p572
I1329
sS'agricultural machinery'
p573
I550
sS'chin'
p574
I1104
sS'clothing'
p575
I177
sS'baseball field'
p576
I169
sS'pink'
p577
I146
sS'winter'
p578
I828
sS'sailboat'
p579
I559
sS'bed frame'
p580
I1719
sS'hyundai veloster'
p581
I1668
sS'hedgehog cactus'
p582
I1788
sS'cardinal'
p583
I852
sS'elephant'
p584
I836
sS'tile'
p585
I1082
sS'glacial landform'
p586
I1178
sS'map'
p587
I1645
sS'product'
p588
I39
sS'laundry'
p589
I1070
sS'cocktail'
p590
I722
sS'airbus a330'
p591
I751
sS'latte'
p592
I1488
sS'produce'
p593
I350
sS'tablecloth'
p594
I704
sS'jellyfish'
p595
I332
sS'classroom'
p596
I258
sS'surfing'
p597
I1560
sS'badlands'
p598
I416
sS'wheelchair'
p599
I580
sS'chain link fencing'
p600
I1153
sS'truck'
p601
I3
sS'roller derby'
p602
I676
sS'biplane'
p603
I752
sS'hendl'
p604
I1717
sS'plucked string instruments'
p605
I603
sS'formula one car'
p606
I583
sS'terrace'
p607
I508
sS'pitch'
p608
I1239
sS'performing arts center'
p609
I672
sS'braid'
p610
I1742
sS'rhinoceros'
p611
I1131
sS'ferrari f430'
p612
I1348
sS'police'
p613
I65
sS'accordion'
p614
I1298
sS'window'
p615
I354
sS'hot tub'
p616
I1641
sS'winter sport'
p617
I978
sS'road surface'
p618
I522
sS'flightless bird'
p619
I848
sS'automated teller machine'
p620
I1686
sS'computer case'
p621
I1292
sS'lunch'
p622
I251
sS'cheetah'
p623
I850
sS'martial arts'
p624
I1059
sS'sea turtle'
p625
I321
sS'monarch butterfly'
p626
I881
sS'ferns and horsetails'
p627
I803
sS'bowling'
p628
I261
sS'land lot'
p629
I49
sS'turtle'
p630
I333
sS'bonsai'
p631
I1517
sS'zebra'
p632
I830
sS'signage'
p633
I63
sS'ice cream'
p634
I279
sS'player piano'
p635
I557
sS'air force'
p636
I780
sS'factory'
p637
I549
sS'high jump'
p638
I1404
sS'tree frog'
p639
I363
sS'eagle'
p640
I1483
sS'aeolian landform'
p641
I995
sS'rotorcraft'
p642
I494
sS'carp'
p643
I323
sS'bullring'
p644
I496
sS'cart'
p645
I69
sS'bodyboarding'
p646
I1564
sS'snooker'
p647
I969
sS'marina'
p648
I162
sS'porsche panamera'
p649
I1361
sS'movie theater'
p650
I670
sS'stony coral'
p651
I373
sS'lockheed p 3 orion'
p652
I742
sS'playground slide'
p653
I1181
sS'flea market'
p654
I1311
sS'footwear'
p655
I121
sS'swing'
p656
I1390
sS'endurocross'
p657
I1195
sS'pelican'
p658
I923
sS'german shepherd dog'
p659
I899
sS'calabaza'
p660
I1310
sS'team sport'
p661
I466
sS'sofa bed'
p662
I1026
sS'orb weaver spider'
p663
I827
sS'airbus'
p664
I734
sS'city'
p665
I46
sS'bentley continental flying spur'
p666
I1382
sS'carousel'
p667
I640
sS'white'
p668
I673
sS'starfish'
p669
I322
sS'season'
p670
I453
sS'cheerleading'
p671
I1241
sS'hut'
p672
I1250
sS'layered hair'
p673
I1746
sS'jaguar s type'
p674
I1353
sS'surface water sports'
p675
I907
sS'television'
p676
I383
sS'iceberg'
p677
I931
sS'sailing'
p678
I775
sS'karate'
p679
I1043
sS'animal shelter'
p680
I1707
sS'siding'
p681
I840
sS'freight car'
p682
I985
sS'tractor'
p683
I91
sS'natural arch'
p684
I993
sS'ice hockey'
p685
I1457
sS'alley'
p686
I1100
sS'ant'
p687
I1416
sS'arachnid'
p688
I826
sS'dog like mammal'
p689
I212
sS'breakfast'
p690
I274
sS'marathon'
p691
I487
sS'fashion show'
p692
I1211
sS'chessboard'
p693
I1522
sS'zebra crossing'
p694
I1663
sS'performance'
p695
I153
sS'butterfly'
p696
I863
sS'track'
p697
I81
sS'plumbing fixture'
p698
I1057
sS'buffet'
p699
I287
sS'invertebrate'
p700
I317
sS'bluebird'
p701
I1129
sS'sukhoi su 27'
p702
I770
sS'lawn'
p703
I135
sS'log cabin'
p704
I1019
sS'camping'
p705
I501
sS'seafood'
p706
I289
sS'sunset'
p707
I743
sS'grassland'
p708
I397
sS'professional'
p709
I708
sS'hedgehog'
p710
I791
sS'110 metres hurdles'
p711
I1403
sS'torch lily'
p712
I833
sS'east indiaman'
p713
I910
sS'ceiling fan'
p714
I1105
sS'temperate broadleaf and mixed forest'
p715
I792
sS'scoreboard'
p716
I1227
sS'shoe'
p717
I1099
sS'gull'
p718
I1433
sS'wood'
p719
I420
sS'black'
p720
I123
sS'hockey'
p721
I1456
sS'muffin'
p722
I1777
sS'public space'
p723
I45
sS'wheatgrass'
p724
I864
sS'bridge'
p725
I409
sS'modern dance'
p726
I1327
sS'jazz'
p727
I1206
sS'slide guitar'
p728
I601
sS'outdoor furniture'
p729
I1185
sS'japanese macaque'
p730
I1642
sS'show jumping'
p731
I536
sS'leather'
p732
I479
sS'lechon'
p733
I1710
sS'skyline'
p734
I97
sS'sirloin steak'
p735
I1705
sS'bison'
p736
I1646
sS'nonbuilding structure'
p737
I437
sS'picnic'
p738
I1528
sS'concert'
p739
I682
sS'trail riding'
p740
I822
sS'ferrari testarossa'
p741
I1375
sS'bowed string instrument'
p742
I635
sS'mecca'
p743
I185
sS'big cats'
p744
I797
sS'dressage'
p745
I962
sS'saluki'
p746
I1631
sS'cobalt blue'
p747
I1187
sS'skyscraper'
p748
I665
sS'bass drum'
p749
I1296
sS'living room'
p750
I133
sS'dome'
p751
I655
sS'supermarket'
p752
I248
sS'guitar'
p753
I570
sS'paddy field'
p754
I1264
sS'brassica'
p755
I1437
sS'oil tanker'
p756
I1732
sS'buick rendezvous'
p757
I1355
sS'ice dancing'
p758
I1460
sS'berry'
p759
I1557
sS'opera house'
p760
I1207
sS'high speed rail'
p761
I470
sS'color'
p762
I1148
sS'jeans'
p763
I1573
sS'luxury vehicle'
p764
I225
sS'cabinetry'
p765
I1030
sS'metropolitan area'
p766
I1152
sS'butte'
p767
I1449
sS'polo'
p768
I950
sS'sledding'
p769
I1169
sS'mare'
p770
I943
sS'wedding dress'
p771
I210
sS'window treatment'
p772
I1114
sS'airliner'
p773
I473
sS'vacation'
p774
I167
sS'disabled sports'
p775
I1465
sS'fiat 500'
p776
I1611
sS'helicopter'
p777
I101
sS'engine'
p778
I560
sS'pre dreadnought battleship'
p779
I1673
sS'tiger'
p780
I796
sS'bmw'
p781
I589
sS'dahlia'
p782
I1789
sS'pilot'
p783
I1471
sS'vespa'
p784
I104
sS'cash'
p785
I1681
sS'newspaper'
p786
I1106
sS'vest'
p787
I1587
sS'embraer erj 145 family'
p788
I766
sS'soil'
p789
I812
sS'roller sport'
p790
I674
sS'media player'
p791
I1474
sS'sahara'
p792
I999
sS'waterway'
p793
I173
sS'technology'
p794
I544
sS'jet aircraft'
p795
I732
sS'vending machine'
p796
I486
sS'rock concert'
p797
I339
sS'radio controlled aircraft'
p798
I785
sS'lava'
p799
I1422
sS'residential area'
p800
I15
sS'automotive engine part'
p801
I548
sS'figurine'
p802
I609
sS'speech'
p803
I697
sS'erinaceidae'
p804
I790
sS'ice boat'
p805
I1754
sS'arctic'
p806
I1010
sS'running'
p807
I879
sS'fruit'
p808
I832
sS'barber'
p809
I1738
sS'statue'
p810
I139
sS'climbing'
p811
I994
sS'cupcake'
p812
I1491
sS'cartoon'
p813
I613
sS'hummingbird'
p814
I1781
sS'agronomist'
p815
I1510
sS'birthday cake'
p816
I1550
sS'christmas lights'
p817
I175
sS'glacier'
p818
I1177
sS'relief'
p819
I220
sS'bottle'
p820
I712
sS'wine gum'
p821
I1547
sS'performing arts'
p822
I87
sS'choreography'
p823
I1809
sS'money'
p824
I136
sS'battleship'
p825
I151
sS'post box'
p826
I1338
sS"bird's eye view"
p827
I1693
sS'boats and boating equipment and supplies'
p828
I1133
sS'flood'
p829
I442
sS'rose'
p830
I1619
sS'public speaking'
p831
I666
sS'military aircraft'
p832
I561
sS'automotive exterior'
p833
I58
sS'obstacle race'
p834
I1244
sS'alcoholic beverage'
p835
I282
sS'warehouse'
p836
I462
sS'mitsuoka viewt'
p837
I1350
sS'traffic'
p838
I1662
sS'moth orchid'
p839
I860
sS'stunt'
p840
I1365
sS'furniture'
p841
I125
sS'dog agility'
p842
I1395
sS'nissan'
p843
I1358
sS'lightning'
p844
I1270
sS'audience'
p845
I520
sS'nose'
p846
I446
sS'tower'
p847
I60
sS'soccer kick'
p848
I1230
sS'auditorium'
p849
I483
sS'jewellery'
p850
I320
sS'doll'
p851
I1049
sS'moths and butterflies'
p852
I845
sS'crater lake'
p853
I1431
sS'pasture'
p854
I393
sS'hunt seat'
p855
I940
sS'caribbean'
p856
I889
sS'longboard'
p857
I982
sS'tom tom drum'
p858
I1295
sS'tuba'
p859
I618
sS'moon'
p860
I992
sS'foursome golf'
p861
I1691
sS'boat'
p862
I106
sS'metropolis'
p863
I138
sS'wheat'
p864
I1498
sS'volkswagen'
p865
I1356
sS'drums'
p866
I582
sS'cycling'
p867
I577
sS'indoor games and sports'
p868
I715
sS'greengrocer'
p869
I1140
sS'motorcycle speedway'
p870
I951
sS'spring break'
p871
I1224
sS'jeep'
p872
I853
sS'netbook'
p873
I1090
sS'wakeboarding'
p874
I750
sS'road'
p875
I56
sS'watercraft rowing'
p876
I660
sS'curling'
p877
I1461
sS'image'
p878
I137
sS'shooting range'
p879
I1216
sS'wadi'
p880
I996
sS'nail care'
p881
I1549
sS'cnidaria'
p882
I316
sS'light fixture'
p883
I768
sS'vintage car'
p884
I585
sS'wildfire'
p885
I1260
sS'radiology'
p886
I1649
sS'valley'
p887
I1669
sS'circuit component'
p888
I1297
sS'close up'
p889
I979
sS'rose family'
p890
I1791
sS'gliding'
p891
I737
sS'pitcher'
p892
I1723
sS'walkway'
p893
I43
sS'cottage'
p894
I1023
sS'hot air balloon'
p895
I639
sS'miniature golf'
p896
I1392
sS'comics'
p897
I607
sS'commercial vehicle'
p898
I96
sS'motor vehicle'
p899
I564
sS'christmas tree'
p900
I376
sS'blackbird'
p901
I1423
sS'shiba inu'
p902
I1605
sS'grass'
p903
I168
sS'toilet'
p904
I1111
sS'deer'
p905
I817
sS'ball game'
p906
I89
sS'galliformes'
p907
I1625
sS'logo'
p908
I1537
sS'echinoderm'
p909
I351
sS'horse'
p910
I305
sS'dawn'
p911
I1570
sS'tower block'
p912
I1151
sS'washing machine'
p913
I1066
sS'field'
p914
I960
sS'astronaut'
p915
I590
sS'gambling'
p916
I1086
sS'bunk bed'
p917
I1287
sS'long distance running'
p918
I488
sS'speed skiing'
p919
I1175
sS'alloy wheel'
p920
I1371
sS'concrete mixer'
p921
I1729
sS'tackle'
p922
I510
sS'peugeot'
p923
I1533
sS'pool'
p924
I658
sS'building'
p925
I17
sS'marine biology'
p926
I294
sS'sardine'
p927
I1302
sS'groom'
p928
I530
sS'fitness professional'
p929
I1700
sS'combat sport'
p930
I691
sS'northrop grumman b 2 spirit'
p931
I781
sS'telemark skiing'
p932
I1163
sS'motocross'
p933
I1191
sS'seals'
p934
I365
sS'medley swimming'
p935
I1183
sS'dish'
p936
I243
sS'active undergarment'
p937
I1117
sS'physical fitness'
p938
I981
sS'woman'
p939
I512
sS'sitting'
p940
I254
sS'basketball moves'
p941
I157
sS'segway'
p942
I1247
sS'chevrolet silverado'
p943
I1349
sS'boardsport'
p944
I906
sS'dinosaur'
p945
I379
sS'sand'
p946
I1442
sS'saxophone'
p947
I617
sS'psychedelic art'
p948
I1435
sS'mammal'
p949
I182
sS'locomotive'
p950
I86
sS'boeing c 17 globemaster iii'
p951
I769
sS'fence'
p952
I394
sS'aerialist'
p953
I1290
sS'skiing'
p954
I977
sS'lamniformes'
p955
I327
sS'fast food'
p956
I277
sS'mill'
p957
I1513
sS'cable car'
p958
I645
sS'darkness'
p959
I1015
sS'clock'
p960
I1282
sS'magnolia'
p961
I1804
sS'racing'
p962
I164
sS'plush'
p963
I1765
sS'ballet'
p964
I1201
sS'trunk'
p965
I831
sS'arena'
p966
I535
sS'tortoise'
p967
I334
sS'fisheye lens'
p968
I1012
sS'soldier'
p969
I99
sS'airport'
p970
I83
sS'milkshake'
p971
I1496
sS'advertising'
p972
I61
sS'jheri curl'
p973
I1751
sS'musical instrument'
p974
I426
sS'traffic sign'
p975
I1343
sS'bicycle wheel'
p976
I659
sS'ocelot'
p977
I799
sS'arcade game'
p978
I288
sS'jaguar xk150'
p979
I1351
sS'eye'
p980
I998
sS'warship'
p981
I1004
sS'canoe'
p982
I648
sS'winter squash'
p983
I1308
sS'violin family'
p984
I1277
sS'raft'
p985
I1540
sS'inflatable'
p986
I227
sS'trampolining equipment and supplies'
p987
I231
sS'door'
p988
I48
sS'coral reef'
p989
I293
sS'flag'
p990
I1529
sS'steering part'
p991
I1472
sS'cruise ship'
p992
I972
sS'town'
p993
I14
sS'primate'
p994
I806
sS'mcdonnell douglas md 80'
p995
I762
sS'jujutsu'
p996
I1202
sS'wrestler'
p997
I1317
sS'male'
p998
I529
sS'stemware'
p999
I728
sS'shark'
p1000
I310
sS'hamburger'
p1001
I718
sS'skateboarding equipment and supplies'
p1002
I1222
sS'bidet'
p1003
I1113
sS'autumn'
p1004
I452
sS'cairn terrier'
p1005
I1616
sS'pond'
p1006
I149
sS'airplane'
p1007
I471
sS'dress'
p1008
I513
sS'outerwear'
p1009
I1061
sS'ultralight aviation'
p1010
I754
sS'demolition'
p1011
I174
sS'bed sheet'
p1012
I1024
sS'aston martin dbs v12'
p1013
I1374
sS'plant'
p1014
I120
sS'rainforest'
p1015
I380
sS'lighting'
p1016
I200
sS'adventure'
p1017
I739
sS'softball'
p1018
I1408
sS'backyard'
p1019
I171
sS'alps'
p1020
I1592
sS'snowshoe'
p1021
I1173
sS'sun tanning'
p1022
I1180
sS'coat'
p1023
I1585
sS'volleyball'
p1024
I1186
sS'shore'
p1025
I896
sS'waterfowl'
p1026
I909
sS'infant'
p1027
I1647
sS'old world flycatcher'
p1028
I1424
sS'reservoir'
p1029
I1432
sS'horse tack'
p1030
I964
sS'woodland'
p1031
I449
sS'arabian camel'
p1032
I1596
sS'thermae'
p1033
I1639
sS'brig'
p1034
I1674
sS'surgeon'
p1035
I1655
sS'string instrument'
p1036
I265
sS'houseplant'
p1037
I1780
sS'scow'
p1038
I892
sS'resort'
p1039
I50
sS'vehicle registration plate'
p1040
I1215
sS'soccer'
p1041
I1220
sS'food'
p1042
I166
sS'gadget'
p1043
I599
sS'western riding'
p1044
I502
sS'pigeons and doves'
p1045
I335
sS'foot'
p1046
I1653
sS'jeep wrangler'
p1047
I1347
sS'tall ship'
p1048
I885
sS'frigate'
p1049
I1680
sS'trolleybus'
p1050
I23
sS'stone carving'
p1051
I163
sS'kayaking'
p1052
I936
sS'outdoor grill'
p1053
I1301
sS'scaled reptile'
p1054
I854
sS'bass guitar'
p1055
I602
sS'athletics'
p1056
I489
sS'snow removal'
p1057
I1367
sS'microwave oven'
p1058
I1330
sS'eyelash'
p1059
I1398
sS'house'
p1060
I85
sS'fish'
p1061
I297
sS'chinese hibiscus'
p1062
I856
sS'event'
p1063
I1808
sS'harp'
p1064
I988
sS'flower'
p1065
I118
sS'alcohol'
p1066
I1760
sS'fountain'
p1067
I115
sS'chinese noodles'
p1068
I714
sS'peafowl'
p1069
I1696
sS'foal'
p1070
I945
sS'highway'
p1071
I435
sS'viol'
p1072
I1279
sS'bass'
p1073
I933
sS'pug'
p1074
I1182
sS'table tennis'
p1075
I90
sS'dune'
p1076
I1443
sS'cockpit'
p1077
I771
sS'toy'
p1078
I74
sS'trailer truck'
p1079
I1665
sS'thread'
p1080
I1304
sS'food grain'
p1081
I1499
sS'seahorse'
p1082
I330
sS'canna family'
p1083
I1790
sS'cheering'
p1084
I1242
sS'cable stayed bridge'
p1085
I644
sS'snowboarding'
p1086
I1160
sS'castle'
p1087
I406
sS'charcuterie'
p1088
I1709
sS'botany'
p1089
I835
sS'nissan leaf'
p1090
I1366
sS'narcissus'
p1091
I1779
sS'chest of drawers'
p1092
I1028
sS'singing sand'
p1093
I1601
sS'meadow'
p1094
I1445
sS'koi'
p1095
I223
sS'christmas decoration'
p1096
I176
sS'blossom'
p1097
I1644
sS'shoot boxing'
p1098
I1312
sS'attic'
p1099
I1097
sS'rapid transit'
p1100
I469
sS'hindu temple'
p1101
I1419
sS'lawn mower'
p1102
I1628
sS'bow and arrow'
p1103
I1394
sS'off roading'
p1104
I1597
sS'park'
p1105
I132
sS'great ape'
p1106
I793
sS'crop'
p1107
I829
sS'stairs'
p1108
I667
sS'egyptian temple'
p1109
I519
sS'surfboard'
p1110
I1098
sS'electric blue'
p1111
I1063
sS'cattle like mammal'
p1112
I1438
sS'go kart'
p1113
I563
sS'youth'
p1114
I443
sS'bride'
p1115
I515
sS'hurdling'
p1116
I1402
sS'english riding'
p1117
I537
sS'macaw'
p1118
I366
sS'world rally car'
p1119
I93
sS'pedestrian'
p1120
I1155
sS'graffiti'
p1121
I976
sS'blond'
p1122
I631
sS'daylily'
p1123
I1800
sS'mountain'
p1124
I811
sS'koala'
p1125
I1332
sS'operating theater'
p1126
I1650
sS'controlled access highway'
p1127
I436
sS'hot rod'
p1128
I1385
sS'cave'
p1129
I368
sS'couch'
p1130
I1017
sS'individual sports'
p1131
I1699
sS'steppe'
p1132
I908
sS'breaststroke'
p1133
I1189
sS'pianist'
p1134
I686
sS'beer glass'
p1135
I1757
sS'billiard room'
p1136
I693
sS'play'
p1137
I145
sS'brioche'
p1138
I1762
sS'bridle'
p1139
I957
sS'moss'
p1140
I813
sS'ducks geese and swans'
p1141
I876
sS'small appliance'
p1142
I1074
sS'labrador retriever'
p1143
I1626
sS'steering wheel'
p1144
I1473
sS'still life'
p1145
I629
sS'train station'
p1146
I1214
sS'amphibian'
p1147
I292
sS'loveseat'
p1148
I1018
sS'golf'
p1149
I1393
sS'phenomenon'
p1150
I202
sS'cruiser'
p1151
I1294
sS'sparrow'
p1152
I234
sS'barbell'
p1153
I1078
sS'clothes dryer'
p1154
I1068
sS'bodybuilding'
p1155
I1032
sS'weapon combat sports'
p1156
I1319
sS'font'
p1157
I445
sS'geological phenomenon'
p1158
I72
sS'pitch and putt'
p1159
I1690
sS'sideboard'
p1160
I1052
sS'scooter'
p1161
I103
sS'off road vehicle'
p1162
I66
sS'corporate headquarters'
p1163
I1157
sS'filling station'
p1164
I1682
sS'grocery store'
p1165
I269
sS'boulder'
p1166
I997
sS'inline speed skating'
p1167
I1228
sS'golf cart'
p1168
I1606
sS'canadian football'
p1169
I1231
sS'banner'
p1170
I280
sS'banquet'
p1171
I695
sS'underwater diving'
p1172
I359
sS'catcher'
p1173
I1724
sS'sleeve'
p1174
I478
sS'hula hoop'
p1175
I1634
sS'perfume'
p1176
I615
sS'pickup truck'
p1177
I32
sS'river'
p1178
I823
sS'art'
p1179
I222
sS'billiard table'
p1180
I1812
sS'facial hair'
p1181
I1089
sS'pilates'
p1182
I1741
sS'sea'
p1183
I1262
sS'cyclo cross bicycle'
p1184
I242
sS'arm'
p1185
I616
sS'sportswear'
p1186
I1038
sS'barn'
p1187
I1245
sS'hibiscus'
p1188
I855
sS'cosplay'
p1189
I638
sS'cycle sport'
p1190
I440
sS'aqueduct'
p1191
I431
sS'barquentine'
p1192
I1561
sS'street hockey'
p1193
I1464
sS'baked goods'
p1194
I1147
sS'major appliance'
p1195
I1067
sS'pagoda'
p1196
I1253
sS'aircraft'
p1197
I353
sS'sheeps'
p1198
I1629
sS'blazer'
p1199
I1062
sS'restaurant'
p1200
I244
sS'amusement ride'
p1201
I272
sS'landform'
p1202
I140
sS'lotus elise'
p1203
I1360
sS'lupin'
p1204
I1778
sS'tgv'
p1205
I974
sS'bell'
p1206
I1014
sS'community'
p1207
I42
sS'lake'
p1208
I838
sS'dancer'
p1209
I497
sS'village'
p1210
I1192
sS'goats'
p1211
I968
sS'rays and skates'
p1212
I347
sS'vertebrate'
p1213
I160
sS'gridiron football'
p1214
I527
sS'brick'
p1215
I455
sS'squirrel'
p1216
I1819
sS'ford crown victoria police interceptor'
p1217
I1664
sS'fire'
p1218
I24
sS'performance art'
p1219
I498
sS'boeing c 40 clipper'
p1220
I756
sS'grille'
p1221
I587
sS'still life photography'
p1222
I1493
sS'asian food'
p1223
I275
sS'stick and ball games'
p1224
I952
sS'fur'
p1225
I1736
sS'edible mushroom'
p1226
I1768
sS'rope'
p1227
I1415
sS'skiff'
p1228
I1727
sS'telephone booth'
p1229
I1337
sS'hair accessory'
p1230
I1734
sS'chevrolet ssr'
p1231
I1384
sS'forage fish'
p1232
I1770
sS'moth'
p1233
I865
sS'petal'
p1234
I1794
sS'candle holder'
p1235
I1093
sS'album cover'
p1236
I776
sS'sugar paste'
p1237
I1552
sS'facade'
p1238
I1156
sS'audi'
p1239
I593
sS'truss bridge'
p1240
I457
sS'cuisine'
p1241
I255
sS'pipeline transport'
p1242
I1196
sS'eyewear'
p1243
I898
sS'textile'
p1244
I1722
sS'cumulus'
p1245
I859
sS'viola'
p1246
I1205
sS'ancient roman architecture'
p1247
I390
sS'leopard'
p1248
I800
sS'cattleya labiata'
p1249
I1802
sS'grilling'
p1250
I285
sS'boeing b 17 flying fortress'
p1251
I744
sS'birch'
p1252
I1132
sS'cityscape'
p1253
I410
sS'ballistic missile submarine'
p1254
I1730
sS'lacrosse'
p1255
I1223
sS'horse racing'
p1256
I942
sS'ski cross'
p1257
I1166
sS'person'
p1258
I20
sS'landmark'
p1259
I113
sS'collegiate wrestling'
p1260
I1326
sS'distilled beverage'
p1261
I727
sS'fitness and figure competition'
p1262
I1116
sS'full moon'
p1263
I1565
sS'axel jump'
p1264
I1469
sS'mountaineering'
p1265
I1164
sS'steeple'
p1266
I1511
sS'mountain bike'
p1267
I562
sS'afro'
p1268
I1750
sS'cup'
p1269
I626
sS'motorsport'
p1270
I920
sS'cemetery'
p1271
I209
sS'exhibition'
p1272
I600
sS'mountainous landforms'
p1273
I810
sS'kitchen stove'
p1274
I1077
sS'buttercream'
p1275
I1766
sS'toyota tundra'
p1276
I1388
sS'vendor'
p1277
I276
sS'military vehicle'
p1278
I1604
sS'display device'
p1279
I62
sS'soccer specific stadium'
p1280
I507
sS'aquatic plant'
p1281
I1124
sS'border collie'
p1282
I1816
sS'freestyle bmx'
p1283
I1283
sS'toyota'
p1284
I1387
sS'vibraphone'
p1285
I1095
sS'drilling rig'
p1286
I1516
sS'bamboo'
p1287
I789
sS'family car'
p1288
I68
sS'sketch'
p1289
I633
sS'stream bed'
p1290
I1615
sS'clown'
p1291
I1745
sS'candle'
p1292
I1303
sS'sprint'
p1293
I966
sS'landscape lighting'
p1294
I201
sS'land plant'
p1295
I795
sS'sneakers'
p1296
I1466
sS'temple'
p1297
I207
sS'basketball player'
p1298
I517
sS'eating'
p1299
I707
sS'north american t 6 texan'
p1300
I763
sS'medical imaging'
p1301
I1648
sS'lionfish'
p1302
I378
sS'mode of transport'
p1303
I2
sS'drinkware'
p1304
I1492
sS'wildlife'
p1305
I824
sS'liquor store'
p1306
I1142
sS'equestrian vaulting'
p1307
I959
sS'plaza'
p1308
I41
sS'graduation'
p1309
I671
sS'race track'
p1310
I26
sS'dragon boat'
p1311
I1679
sS'slam dunk'
p1312
I1209
sS'canning'
p1313
I1143
sS'cornales'
p1314
I1785
sS'suspension bridge'
p1315
I815
sS'rye bread'
p1316
I1774
sS'short track speed skating'
p1317
I1462
sS'kielbasa'
p1318
I1708
sS'downhill'
p1319
I1176
sS'wine bottle'
p1320
I1758
sS'canal'
p1321
I172
sS'jockey'
p1322
I946
sS'arcade'
p1323
I1543
sS'suit'
p1324
I1578
sS'roller in line hockey'
p1325
I1458
sS'frost'
p1326
I880
sS'bird of prey'
p1327
I1126
sS'toucan'
p1328
I866
sS'reef'
p1329
I295
sS'crane'
p1330
I1515
sS'penguin'
p1331
I1452
sS'english lavender'
p1332
I1447
sS'planet'
p1333
I1434
sS'wine glass'
p1334
I729
sS'window covering'
p1335
I1520
sS'bmx bike'
p1336
I1029
sS'brass instrument'
p1337
I652
sS'classical architecture'
p1338
I395
sS'wood flooring'
p1339
I636
sS'equestrianism'
p1340
I821
sS'stratovolcano'
p1341
I1268
sS'rainbow'
p1342
I1542
sS'decapoda'
p1343
I356
sS'endurance'
p1344
I956
sS'sports fan jersey'
p1345
I1039
sS'vitis'
p1346
I1276
sS'parakeet'
p1347
I846
sS'insect'
p1348
I381
sS'business jet'
p1349
I764
sS'afterglow'
p1350
I939
sS'black belt'
p1351
I1321
sS'golf equipment'
p1352
I1689
sS'chevrolet volt'
p1353
I595
sS'desert'
p1354
I990
sS'structure'
p1355
I25
sS'lane'
p1356
I760
sS'torii'
p1357
I1421
sS'snowmobile'
p1358
I1137
sS'barbecue'
p1359
I1718
sS'golfer'
p1360
I1687
sS'asphalt'
p1361
I34
sS'freediving'
p1362
I357
sS'mosque'
p1363
I161
sS'shack'
p1364
I1251
sS'suite'
p1365
I702
sS'jet ski'
p1366
I921
sS'schooner'
p1367
I1562
sS'byzantine architecture'
p1368
I402
sS'garden'
p1369
I874
sS'dessert'
p1370
I266
sS'wave'
p1371
I337
sS'automotive tire'
p1372
I1102
sS'llama'
p1373
I1440
sS'middle distance running'
p1374
I1401
sS'recreation'
p1375
I649
sS'acoustic guitar'
p1376
I1094
sS'boeing 777'
p1377
I748
sS'floristry'
p1378
I218
sS'cross country running'
p1379
I955
sS'crow'
p1380
I1480
sS'wrestling'
p1381
I688
sS'mural'
p1382
I331
sS'racquet sport'
p1383
I1519
sS'giant panda'
p1384
I1694
sS'spaghetti'
p1385
I278
sS'sausage'
p1386
I1715
sS'volkswagen beetle'
p1387
I597
sS'golf course'
p1388
I499
sS'bird'
p1389
I159
sS'kite sports'
p1390
I905
sS'leg'
p1391
I1563
sS'kangaroo'
p1392
I1688
sS'punch'
p1393
I1314
sS'ibis'
p1394
I1128
sS'sink'
p1395
I1080
sS'cat like mammal'
p1396
I798
sS'galleon'
p1397
I915
sS'fire apparatus'
p1398
I9
sS'disc jockey'
p1399
I1580
sS'orangutan'
p1400
I794
sS'chocolate truffle'
p1401
I1772
sS'skin'
p1402
I1737
sS'wig'
p1403
I1744
sS'apple'
p1404
I1141
sS'blizzard'
p1405
I1602
sS'liqueur'
p1406
I283
sS'toyota tacoma'
p1407
I1609
sS'duck'
p1408
I875
sS'singing'
p1409
I1213
sS'cloud'
p1410
I389
sS'flowering plant'
p1411
I820
sS'bazaar'
p1412
I246
sS'honey bee'
p1413
I1786
sS'frog'
p1414
I360
sS'cargo ship'
p1415
I1571
sS'camera'
p1416
I578
sS'jelly bean'
p1417
I1558
sS'amusement park'
p1418
I114
sS'hot air ballooning'
p1419
I1448
sS'grass family'
p1420
I374
sS'road bicycle'
p1421
I239
sS'porch'
p1422
I701
sS'off road racing'
p1423
I1539
sS'musician'
p1424
I21
sS'kiosk'
p1425
I1340
sS'trail'
p1426
I834
sS'train'
p1427
I468
sS'subcompact car'
p1428
I1536
sS'football equipment and supplies'
p1429
I1048
sS'harvest'
p1430
I1500
sS'aircraft carrier'
p1431
I1013
sS'whisky'
p1432
I1756
sS'salad'
p1433
I724
sS'tunnel'
p1434
I341
sS'ship of the line'
p1435
I912
sS'human action'
p1436
I52
sS'condominium'
p1437
I152
sS'full size car'
p1438
I95
sS'maple tree'
p1439
I1803
sS'bridal clothing'
p1440
I407
sS'boudin'
p1441
I1716
sS'bookselling'
p1442
I713
sS'loch'
p1443
I901
sS'nightclub'
p1444
I484
sS'egret'
p1445
I1136
sS'lama'
p1446
I1257
sS'chevrolet'
p1447
I596
sS'boxing'
p1448
I678
sS'coachman'
p1449
I1482
sS'commercial building'
p1450
I12
sS'toddler'
p1451
I144
sS'airline'
p1452
I472
sS'pedestrian crossing'
p1453
I1364
sS'farm'
p1454
I1507
sS'watch'
p1455
I556
sS'paintball'
p1456
I419
sS'hawk'
p1457
I1127
sS'terrier'
p1458
I1617
sS'autograph'
p1459
I725
sS'tomato'
p1460
I1305
sS'boeing'
p1461
I733
sS'light'
p1462
I208
sS't ai chi ch uan'
p1463
I1325
sS'cutlery'
p1464
I709
sS'bakery'
p1465
I262
sS'ski equipment'
p1466
I986
sS'okapi'
p1467
I870
sS'auto mechanic'
p1468
I554
sS'martini'
p1469
I1759
sS'antelope'
p1470
I1444
sS'carom billiards'
p1471
I1523
sS'caravel'
p1472
I914
sS'display window'
p1473
I1288
sS'costume'
p1474
I268
sS'underwater'
p1475
I306
sS'swimming pool'
p1476
I122
sS'baseball positions'
p1477
I1200
sS'kindergarten'
p1478
I1197
sS'sport utility vehicle'
p1479
I33
sS'marsh'
p1480
I1120
sS'skin head percussion instrument'
p1481
I685
sS'orange'
p1482
I158
sS'silo'
p1483
I1514
sS'forest'
p1484
I450
sS'heptathlon'
p1485
I1400
sS'citrus'
p1486
I1150
sS'dam'
p1487
I534
sS'old world monkey'
p1488
I1637
sS'natural environment'
p1489
I197
sS'dock'
p1490
I271
sS'snake'
p1491
I1130
sS'bar'
p1492
I226
sS'auto show'
p1493
I553
sS'tram'
p1494
I73
sS'professional wrestling'
p1495
I1318
sS'convenience store'
p1496
I256
sS'lingerie'
p1497
I1109
sS'tubing'
p1498
I924
sS'long jump'
p1499
I1405
sS'glasses'
p1500
I989
sS'picture frame'
p1501
I195
sS'bentley'
p1502
I1381
sS'cross country skiing'
p1503
I1165
sS'supermodel'
p1504
I1208
sS'baby carriage'
p1505
I1199
sS'peugeot 206'
p1506
I1535
sS'sweatshirt'
p1507
I1590
sS'agriculture'
p1508
I441
sS'goalkeeper'
p1509
I1229
sS'marine invertebrates'
p1510
I315
sS'freshwater aquarium'
p1511
I298
sS'entertainment'
p1512
I88
sS'parasailing'
p1513
I1676
sS'boutique'
p1514
I270
sS'pit stop'
p1515
I27
sS'model aircraft'
p1516
I784
sS'playground'
p1517
I141
sS'lecture'
p1518
I683
sS'electronics'
p1519
I465
sS'windsurfing'
p1520
I929
sS'red'
p1521
I524
sS'umbrella'
p1522
I720
sS'recreational fishing'
p1523
I809
sS'steam engine'
p1524
I541
sS'alpaca'
p1525
I1441
sS'dinghy sailing'
p1526
I891
sS'watercolor paint'
p1527
I1427
sS'yard'
p1528
I170
sS'skateboard'
p1529
I1221
sS'academic dress'
p1530
I1577
sS'wind farm'
p1531
I777
sS'nebula'
p1532
I1426
sS'retail'
p1533
I187
sS'firefighter'
p1534
I19
sS'hurdle'
p1535
I1243
sS'western pleasure'
p1536
I504
sS'aston martin db9'
p1537
I1372
sS'human positions'
p1538
I143
sS'percussion'
p1539
I545
sS'cyclo cross'
p1540
I949
sS'man'
p1541
I414
sS'grizzly bear'
p1542
I872
sS'beard'
p1543
I1702
sS'shorts'
p1544
I1591
sS'shelf'
p1545
I1033
sS'school bus'
p1546
I980
sS'dreadlocks'
p1547
I1749
sS'bassist'
p1548
I680
sS'plough'
p1549
I1414
sS'photograph'
p1550
I229
sS'lamborghini'
p1551
I1362
sS'bicycle racing'
p1552
I948
sS'road bicycle racing'
p1553
I947
sS'aston martin dbs'
p1554
I1373
sS'cameras & optics'
p1555
I579
sS'bed'
p1556
I604
sS'bee'
p1557
I814
sS'sculpture'
p1558
I131
sS'nativity scene'
p1559
I199
sS'hairstyle'
p1560
I621
sS'pole vault'
p1561
I1412
sS'thistle'
p1562
I1622
sS'canyoning'
p1563
I1484
sS'college baseball'
p1564
I1236
sS'cut flowers'
p1565
I1806
sS'red meat'
p1566
I1703
sS'bmw 3 series e36'
p1567
I1607
sS'water resources'
p1568
I438
sS'stone wall'
p1569
I456
sS'hacienda'
p1570
I1399
sS'lily'
p1571
I1792
sS'vegetation'
p1572
I787
sS'minivan'
p1573
I1603
sS'basket'
p1574
I1555
sS'sedan'
p1575
I551
sS'class'
p1576
I1198
sS'sea ice'
p1577
I1425
sS'face'
p1578
I325
sS'vision care'
p1579
I1145
sS'infielder'
p1580
I1238
sS'painting'
p1581
I194
sS'atmosphere'
p1582
I883
sS'text'
p1583
I147
sS'track and field athletics'
p1584
I967
sS'dietary supplement'
p1585
I1146
sS'dactyloidae'
p1586
I807
sS'greenhouse'
p1587
I459
sS'bedroom'
p1588
I1659
sS'chicken'
p1589
I1614
sS'setter'
p1590
I1817
sS'baseball player'
p1591
I1219
sS'tire'
p1592
I451
sS'jay'
p1593
I1123
sS'personal water craft'
p1594
I919
sS'house sparrow'
p1595
I235
sS'japanese martial arts'
p1596
I1204
sS'portable toilet'
p1597
I1054
sS'piano'
p1598
I461
sS'airport apron'
p1599
I495
sS'nail polish'
p1600
I1548
sS'passion flower family'
p1601
I1797
sS'ten pin bowling'
p1602
I477
sS'skipjack'
p1603
I1678
sS'photography'
p1604
I134
sS'bear'
p1605
I873
sS'beam'
p1606
I531
sS'beak'
p1607
I344
sS'bead'
p1608
I1307
sS'cherry blossom'
p1609
I932
sS'organ'
p1610
I319
sS'motorboat'
p1611
I1386
sS'ice rink'
p1612
I1174
sS'eyebrow'
p1613
I1035
sS'shot put'
p1614
I1410
sS'rein'
p1615
I958
sS'powerlifting'
p1616
I1697
sS'motorcycle'
p1617
I352
sS'hardwood'
p1618
I1020
sS'wetland'
p1619
I1119
sS'driveway'
p1620
I78
sS'violet'
p1621
I1107
sS'water polo'
p1622
I1188
sS'water feature'
p1623
I116
sS'stately home'
p1624
I396
sS'closet'
p1625
I1027
sS'pattern'
p1626
I612
sS'infant bed'
p1627
I1051
sS'hammock'
p1628
I664
sS'windsports'
p1629
I662
sS'tent'
p1630
I36
sS'sheep'
p1631
I1630
sS'tervuren'
p1632
I925
sS'volcanic landform'
p1633
I1265
sS'centrepiece'
p1634
I705
sS'audio equipment'
p1635
I1072
sS'black and white'
p1636
I30
sS'ostrich fern'
p1637
I804
sS'fire extinguisher'
p1638
I1683
sS'drum'
p1639
I273
sS'syngnathiformes'
p1640
I329
sS'arctic ocean'
p1641
I1451
sS'duvet cover'
p1642
I1657
sS'boeing 757'
p1643
I767
sS'canopy'
p1644
I721
sS'horse like mammal'
p1645
I941
sS'jersey'
p1646
I1037
sS'wall'
p1647
I54
sS'denim'
p1648
I1574
sS'muskox'
p1649
I887
sS'italian food'
p1650
I286
sS'table'
p1651
I124
sS'tabla'
p1652
I1658
sS'combat vehicle'
p1653
I179
sS'sari'
p1654
I1582
sS'tread'
p1655
I1159
sS'recreation room'
p1656
I694
sS'swimmer'
p1657
I1179
sS'gondola'
p1658
I191
sS'traffic light'
p1659
I1341
sS'dung beetle'
p1660
I1417
sS'yak'
p1661
I1818
sS'curtain'
p1662
I1025
sS'waste'
p1663
I539
sS'marine mammal'
p1664
I300
sS'old growth forest'
p1665
I788
sS'brunch'
p1666
I1328
sS'surgical technologist'
p1667
I1656
sS'historic site'
p1668
I94
sS'plain'
p1669
I427
sS'aloe'
p1670
I1795
sS'railroad car'
p1671
I111
sS'handwriting'
p1672
I1598
sS'bathtub'
p1673
I1081
sS'strength training'
p1674
I1055
sS'rooster'
p1675
I1624
sS'light cruiser'
p1676
I1007
sS'gas stove'
p1677
I1079
sS'mountain biking'
p1678
I869
sS'stained glass'
p1679
I400
sS'wedding reception'
p1680
I1752
sS'college ice hockey'
p1681
I1455
sS'tattoo'
p1682
I367
sS'shooting'
p1683
I417
sS'balloon'
p1684
I606
sS'cross'
p1685
I1512
sS'party'
p1686
I696
sS'commemorative plaque'
p1687
I1436
sS'ball'
p1688
I1234
sS'drink'
p1689
I281
sS'helicopter rotor'
p1690
I100
sS'whale'
p1691
I377
sS'lobby'
p1692
I1065
sS'sunrise'
p1693
I1476
sS'street light'
p1694
I651
sS'reflection'
p1695
I1269
sS'weapon'
p1696
I1225
sS'motorcycling'
p1697
I540
sS'muscle'
p1698
I632
sS'drawing'
p1699
I628
sS'camel'
p1700
I532
sS'protective equipment in gridiron football'
p1701
I1047
sS'fishing'
p1702
I893
sS'tank ship'
p1703
I928
sS'jackal'
p1704
I1643
sS'grappling'
p1705
I1323
sS'barechestedness'
p1706
I1046
sS'rapid'
p1707
I816
sS'gmc'
p1708
I1506
sS'container ship'
p1709
I927
sS'sky'
p1710
I970
sS'local food'
p1711
I1139
sS'nissan maxima'
p1712
I1359
sS'ski'
p1713
I987
sS'membrane winged insect'
p1714
I841
sS'street sign'
p1715
I1684
sS'desk'
p1716
I345
sS'doughnut'
p1717
I1764
sS'riparian forest'
p1718
I444
sS'flamingo'
p1719
I937
sS'traffic congestion'
p1720
I1661
sS'candy'
p1721
I1553
sS'garage'
p1722
I64
sS'airbus a380'
p1723
I758
sS'horse and buggy'
p1724
I1481
sS'paragliding'
p1725
I1261
sS'mercedes benz clk class'
p1726
I1363
sS'shed'
p1727
I16
sS'habitat'
p1728
I196
sS'church'
p1729
I386
sS'library'
p1730
I1085
sS'promontory'
p1731
I1009
sS'hair'
p1732
I611
sS'kart racing'
p1733
I657
sS'gymnastics'
p1734
I1064
sS'antonov an 124 ruslan'
p1735
I759
sS'home'
p1736
I10
sS'transport'
p1737
I4
sS'archaeological site'
p1738
I221
sS'ferrari f355'
p1739
I1377
sS'leaf'
p1740
I358
sS'public transport'
p1741
I84
sS'campfire'
p1742
I70
sS'jackup rig'
p1743
I1158
sS'earrings'
p1744
I1546
sS'fighter aircraft'
p1745
I731
sS'biology'
p1746
I299
sS'fur clothing'
p1747
I1747
sS'rock'
p1748
I902
sS'bathroom'
p1749
I1053
sS'automotive design'
p1750
I567
sS'slum'
p1751
I1190
sS'stage'
p1752
I340
sS'iris'
p1753
I1135
sS'column'
p1754
I391
sS'brown hair'
p1755
I623
sS'bmw x3'
p1756
I588
sS'rodeo'
p1757
I503
sS'bellflower family'
p1758
I1801
sS'ferris wheel'
p1759
I642
sS'swimming'
p1760
I338
sS'owl'
p1761
I1125
sS'reptile'
p1762
I324
sS'wilderness'
p1763
I851
sS'function hall'
p1764
I252
sS'fried food'
p1765
I267
sS'weather'
p1766
I180
sS'maize'
p1767
I1503
sS'van'
p1768
I28
sS'figure skating'
p1769
I1459
sS'boeing 747'
p1770
I736
sS'spiral'
p1771
I1091
sS'coffee cup'
p1772
I1489
sS'leather jacket'
p1773
I1586
sS'cricket'
p1774
I1226
sS'bus'
p1775
I18
sS'construction'
p1776
I1397
sS'bratwurst'
p1777
I1712
sS'city car'
p1778
I40
sS'road cycling'
p1779
I1666
sS'harvester'
p1780
I1497
sS'ecosystem'
p1781
I128
sS'land vehicle'
p1782
I8
sS'ice skating'
p1783
I1170
sS'pansy'
p1784
I1793
sS'carriage'
p1785
I415
sS'cello'
p1786
I1212
sS'monument'
p1787
I130
sS'cake'
p1788
I555
sS'sports equipment'
p1789
I895
sS'squat'
p1790
I1322
sS'skating'
p1791
I634
sS'marketplace'
p1792
I247
sS'sport venue'
p1793
I55
sS'steeplechase'
p1794
I1407
sS'dancesport'
p1795
I1807
sS'audio receiver'
p1796
I1076
sS'boardwalk'
p1797
I112
sS'education'
p1798
I1331
sS'audi r8'
p1799
I594
sS'fishing vessel'
p1800
I918
sS'taekwondo'
p1801
I1315
sS'slaughterhouse'
p1802
I1706
sS'guitarist'
p1803
I679
sS'boot'
p1804
I1579
sS'picket fence'
p1805
I1531
sS'book'
p1806
I1814
sS'neighbourhood'
p1807
I1194
sS'branch'
p1808
I370
sS'finch'
p1809
I886
sS'stuffed toy'
p1810
I1240
sS'pier'
p1811
I1569
sS'brigantine'
p1812
I1671
sS'human settlement'
p1813
I47
sS'river gunboat'
p1814
I1677
sS'american football'
p1815
I528
sS'cliff'
p1816
I991
sS'ford ranger'
p1817
I1538
sS'gelato'
p1818
I1769
sS'eye shadow'
p1819
I1748
sS'piste'
p1820
I783
sS'emergency service'
p1821
I57
s.